target datalayout = "e-m:e-p270:32:32-p271:32:32-p272:64:64-i64:64-i128:128-f80:128-n8:16:32:64-S128"
target triple = "x86_64-pc-linux-gnu"

; Function Attrs: mustprogress uwtable
define dso_local void @_ZN13Probabilities22initialize_group_probsEv(ptr noundef nonnull align 8 dereferenceable(288) %0) #4 align 2 {
  %2 = alloca ptr, align 8
  store ptr %0, ptr %2, align 8
  %3 = load ptr, ptr %2, align 8
  call void @_ZN13Probabilities26set_default_statement_probEv(ptr noundef nonnull align 8 dereferenceable(288) %3)
  call void @_ZN13Probabilities26set_default_unary_ops_probEv(ptr noundef nonnull align 8 dereferenceable(288) %3)
  call void @_ZN13Probabilities27set_default_binary_ops_probEv(ptr noundef nonnull align 8 dereferenceable(288) %3)
  call void @_ZN13Probabilities29set_default_simple_types_probEv(ptr noundef nonnull align 8 dereferenceable(288) %3)
  call void @_ZN13Probabilities30set_default_safe_ops_size_probEv(ptr noundef nonnull align 8 dereferenceable(288) %3)
  call void @_ZN15StatementAssign20InitProbabilityTableEv()
  call void @_ZN10Expression21InitProbabilityTablesEv()
  ret void
}

; Function Attrs: mustprogress uwtable
define dso_local void @_ZN13Probabilities10initializeEv(ptr noundef nonnull align 8 dereferenceable(288) %0) #4 align 2 {
  %2 = alloca ptr, align 8
  store ptr %0, ptr %2, align 8
  %3 = load ptr, ptr %2, align 8
  call void @_ZN13Probabilities20set_single_name_mapsEv(ptr noundef nonnull align 8 dereferenceable(288) %3)
  call void @_ZN13Probabilities23initialize_single_probsEv(ptr noundef nonnull align 8 dereferenceable(288) %3)
  call void @_ZN13Probabilities22initialize_group_probsEv(ptr noundef nonnull align 8 dereferenceable(288) %3)
  ret void
}