; Function Attrs: mustprogress uwtable
define dso_local void @_ZN13Probabilities10initializeEv(ptr noundef nonnull align 8 dereferenceable(288) %0) local_unnamed_addr #3 align 2 {
  tail call void @_ZN13Probabilities20set_single_name_mapsEv(ptr noundef nonnull align 8 dereferenceable(288) %0)
  tail call void @_ZN13Probabilities23initialize_single_probsEv(ptr noundef nonnull align 8 dereferenceable(288) %0)
  tail call void @_ZN13Probabilities26set_default_statement_probEv(ptr noundef nonnull align 8 dereferenceable(288) %0)
  tail call void @_ZN13Probabilities26set_default_unary_ops_probEv(ptr noundef nonnull align 8 dereferenceable(288) %0)
  tail call void @_ZN13Probabilities27set_default_binary_ops_probEv(ptr noundef nonnull align 8 dereferenceable(288) %0)
  tail call void @_ZN13Probabilities29set_default_simple_types_probEv(ptr noundef nonnull align 8 dereferenceable(288) %0)
  tail call void @_ZN13Probabilities30set_default_safe_ops_size_probEv(ptr noundef nonnull align 8 dereferenceable(288) %0)
  tail call void @_ZN15StatementAssign20InitProbabilityTableEv()
  tail call void @_ZN10Expression21InitProbabilityTablesEv()
  ret void
}